(dp0
S'./test.txt'
p1
S'd41d8cd98f00b204e9800998ecf8427e'
p2
sS'./shell.bin'
p3
S'c57fdfd08ca41e62000a5d643ee6f053'
p4
sS'./lab1b.py'
p5
S'fe5cb61a7fa551170874204ab7cc829e'
p6
sS'./lab1.py'
p7
S'991bd64efb654dd91f6fc94908956a2d'
p8
sS'./data.pk1'
p9
S'04a6f5f24bd0eec2763097849c9c4b25'
p10
sS'./shell.c'
p11
S'e35e285c77a47ccebb4c009aaaad370c'
p12
s.